target datalayout = "e-m:e-p270:32:32-p271:32:32-p272:64:64-i64:64-i128:128-f80:128-n8:16:32:64-S128"
target triple = "x86_64-unknown-linux-gnu"

%struct.typeInterface = type { ptr, ptr, ptr, ptr, ptr }
%struct.standardConfig = type { ptr, ptr, i32, %struct.typeInterface, %union.typeData, i32, ptr }
%union.typeData = type { %struct.numericConfigData }
%struct.numericConfigData = type { %union.anon, i32, i32, i64, i64, i64, ptr }
%union.anon = type { ptr }

; Function Attrs: nounwind uwtable
define dso_local i32 @setNumericType(ptr noundef %config, i64 noundef %val, ptr noundef %err) #0 {
entry:
  %retval = alloca i32, align 4
  %config.addr = alloca ptr, align 8
  %val.addr = alloca i64, align 8
  %err.addr = alloca ptr, align 8
  store ptr %config, ptr %config.addr, align 8
  store i64 %val, ptr %val.addr, align 8
  store ptr %err, ptr %err.addr, align 8
  %0 = load ptr, ptr %config.addr, align 8
  %data = getelementptr inbounds %struct.standardConfig, ptr %0, i32 0, i32 4
  %numeric_type = getelementptr inbounds %struct.numericConfigData, ptr %data, i32 0, i32 2
  %1 = load i32, ptr %numeric_type, align 4
  %cmp = icmp eq i32 %1, 0
  br i1 %cmp, label %if.then, label %if.else

if.then:                                          ; preds = %entry
  %2 = load i64, ptr %val.addr, align 8
  %conv = trunc i64 %2 to i32
  %3 = load ptr, ptr %config.addr, align 8
  %data1 = getelementptr inbounds %struct.standardConfig, ptr %3, i32 0, i32 4
  %config2 = getelementptr inbounds %struct.numericConfigData, ptr %data1, i32 0, i32 0
  %4 = load ptr, ptr %config2, align 8
  store i32 %conv, ptr %4, align 4
  br label %if.end87

if.else:                                          ; preds = %entry
  %5 = load ptr, ptr %config.addr, align 8
  %data3 = getelementptr inbounds %struct.standardConfig, ptr %5, i32 0, i32 4
  %numeric_type4 = getelementptr inbounds %struct.numericConfigData, ptr %data3, i32 0, i32 2
  %6 = load i32, ptr %numeric_type4, align 4
  %cmp5 = icmp eq i32 %6, 1
  br i1 %cmp5, label %if.then7, label %if.else11

if.then7:                                         ; preds = %if.else
  %7 = load i64, ptr %val.addr, align 8
  %conv8 = trunc i64 %7 to i32
  %8 = load ptr, ptr %config.addr, align 8
  %data9 = getelementptr inbounds %struct.standardConfig, ptr %8, i32 0, i32 4
  %config10 = getelementptr inbounds %struct.numericConfigData, ptr %data9, i32 0, i32 0
  %9 = load ptr, ptr %config10, align 8
  store i32 %conv8, ptr %9, align 4
  br label %if.end86

if.else11:                                        ; preds = %if.else
  %10 = load ptr, ptr %config.addr, align 8
  %data12 = getelementptr inbounds %struct.standardConfig, ptr %10, i32 0, i32 4
  %numeric_type13 = getelementptr inbounds %struct.numericConfigData, ptr %data12, i32 0, i32 2
  %11 = load i32, ptr %numeric_type13, align 4
  %cmp14 = icmp eq i32 %11, 2
  br i1 %cmp14, label %if.then16, label %if.else19

if.then16:                                        ; preds = %if.else11
  %12 = load i64, ptr %val.addr, align 8
  %13 = load ptr, ptr %config.addr, align 8
  %data17 = getelementptr inbounds %struct.standardConfig, ptr %13, i32 0, i32 4
  %config18 = getelementptr inbounds %struct.numericConfigData, ptr %data17, i32 0, i32 0
  %14 = load ptr, ptr %config18, align 8
  store i64 %12, ptr %14, align 8
  br label %if.end85

if.else19:                                        ; preds = %if.else11
  %15 = load ptr, ptr %config.addr, align 8
  %data20 = getelementptr inbounds %struct.standardConfig, ptr %15, i32 0, i32 4
  %numeric_type21 = getelementptr inbounds %struct.numericConfigData, ptr %data20, i32 0, i32 2
  %16 = load i32, ptr %numeric_type21, align 4
  %cmp22 = icmp eq i32 %16, 3
  br i1 %cmp22, label %if.then24, label %if.else27

if.then24:                                        ; preds = %if.else19
  %17 = load i64, ptr %val.addr, align 8
  %18 = load ptr, ptr %config.addr, align 8
  %data25 = getelementptr inbounds %struct.standardConfig, ptr %18, i32 0, i32 4
  %config26 = getelementptr inbounds %struct.numericConfigData, ptr %data25, i32 0, i32 0
  %19 = load ptr, ptr %config26, align 8
  store i64 %17, ptr %19, align 8
  br label %if.end84

if.else27:                                        ; preds = %if.else19
  %20 = load ptr, ptr %config.addr, align 8
  %data28 = getelementptr inbounds %struct.standardConfig, ptr %20, i32 0, i32 4
  %numeric_type29 = getelementptr inbounds %struct.numericConfigData, ptr %data28, i32 0, i32 2
  %21 = load i32, ptr %numeric_type29, align 4
  %cmp30 = icmp eq i32 %21, 4
  br i1 %cmp30, label %if.then32, label %if.else38

if.then32:                                        ; preds = %if.else27
  %22 = load ptr, ptr %config.addr, align 8
  %flags = getelementptr inbounds %struct.standardConfig, ptr %22, i32 0, i32 2
  %23 = load i32, ptr %flags, align 8
  %conv33 = zext i32 %23 to i64
  %and = and i64 %conv33, 256
  %tobool = icmp ne i64 %and, 0
  br i1 %tobool, label %if.then34, label %if.else35

if.then34:                                        ; preds = %if.then32
  %24 = load ptr, ptr %config.addr, align 8
  %privdata = getelementptr inbounds %struct.standardConfig, ptr %24, i32 0, i32 6
  %25 = load ptr, ptr %privdata, align 8
  %26 = load i64, ptr %val.addr, align 8
  %27 = load ptr, ptr %err.addr, align 8
  %call = call i32 @setModuleNumericConfig(ptr noundef %25, i64 noundef %26, ptr noundef %27)
  store i32 %call, ptr %retval, align 4
  br label %return

if.else35:                                        ; preds = %if.then32
  %28 = load i64, ptr %val.addr, align 8
  %29 = load ptr, ptr %config.addr, align 8
  %data36 = getelementptr inbounds %struct.standardConfig, ptr %29, i32 0, i32 4
  %config37 = getelementptr inbounds %struct.numericConfigData, ptr %data36, i32 0, i32 0
  %30 = load ptr, ptr %config37, align 8
  store i64 %28, ptr %30, align 8
  br label %if.end

if.end:                                           ; preds = %if.else35
  br label %if.end83

if.else38:                                        ; preds = %if.else27
  %31 = load ptr, ptr %config.addr, align 8
  %data39 = getelementptr inbounds %struct.standardConfig, ptr %31, i32 0, i32 4
  %numeric_type40 = getelementptr inbounds %struct.numericConfigData, ptr %data39, i32 0, i32 2
  %32 = load i32, ptr %numeric_type40, align 4
  %cmp41 = icmp eq i32 %32, 5
  br i1 %cmp41, label %if.then43, label %if.else46

if.then43:                                        ; preds = %if.else38
  %33 = load i64, ptr %val.addr, align 8
  %34 = load ptr, ptr %config.addr, align 8
  %data44 = getelementptr inbounds %struct.standardConfig, ptr %34, i32 0, i32 4
  %config45 = getelementptr inbounds %struct.numericConfigData, ptr %data44, i32 0, i32 0
  %35 = load ptr, ptr %config45, align 8
  store i64 %33, ptr %35, align 8
  br label %if.end82

if.else46:                                        ; preds = %if.else38
  %36 = load ptr, ptr %config.addr, align 8
  %data47 = getelementptr inbounds %struct.standardConfig, ptr %36, i32 0, i32 4
  %numeric_type48 = getelementptr inbounds %struct.numericConfigData, ptr %data47, i32 0, i32 2
  %37 = load i32, ptr %numeric_type48, align 4
  %cmp49 = icmp eq i32 %37, 6
  br i1 %cmp49, label %if.then51, label %if.else54

if.then51:                                        ; preds = %if.else46
  %38 = load i64, ptr %val.addr, align 8
  %39 = load ptr, ptr %config.addr, align 8
  %data52 = getelementptr inbounds %struct.standardConfig, ptr %39, i32 0, i32 4
  %config53 = getelementptr inbounds %struct.numericConfigData, ptr %data52, i32 0, i32 0
  %40 = load ptr, ptr %config53, align 8
  store i64 %38, ptr %40, align 8
  br label %if.end81

if.else54:                                        ; preds = %if.else46
  %41 = load ptr, ptr %config.addr, align 8
  %data55 = getelementptr inbounds %struct.standardConfig, ptr %41, i32 0, i32 4
  %numeric_type56 = getelementptr inbounds %struct.numericConfigData, ptr %data55, i32 0, i32 2
  %42 = load i32, ptr %numeric_type56, align 4
  %cmp57 = icmp eq i32 %42, 7
  br i1 %cmp57, label %if.then59, label %if.else62

if.then59:                                        ; preds = %if.else54
  %43 = load i64, ptr %val.addr, align 8
  %44 = load ptr, ptr %config.addr, align 8
  %data60 = getelementptr inbounds %struct.standardConfig, ptr %44, i32 0, i32 4
  %config61 = getelementptr inbounds %struct.numericConfigData, ptr %data60, i32 0, i32 0
  %45 = load ptr, ptr %config61, align 8
  store i64 %43, ptr %45, align 8
  br label %if.end80

if.else62:                                        ; preds = %if.else54
  %46 = load ptr, ptr %config.addr, align 8
  %data63 = getelementptr inbounds %struct.standardConfig, ptr %46, i32 0, i32 4
  %numeric_type64 = getelementptr inbounds %struct.numericConfigData, ptr %data63, i32 0, i32 2
  %47 = load i32, ptr %numeric_type64, align 4
  %cmp65 = icmp eq i32 %47, 8
  br i1 %cmp65, label %if.then67, label %if.else70

if.then67:                                        ; preds = %if.else62
  %48 = load i64, ptr %val.addr, align 8
  %49 = load ptr, ptr %config.addr, align 8
  %data68 = getelementptr inbounds %struct.standardConfig, ptr %49, i32 0, i32 4
  %config69 = getelementptr inbounds %struct.numericConfigData, ptr %data68, i32 0, i32 0
  %50 = load ptr, ptr %config69, align 8
  store i64 %48, ptr %50, align 8
  br label %if.end79

if.else70:                                        ; preds = %if.else62
  %51 = load ptr, ptr %config.addr, align 8
  %data71 = getelementptr inbounds %struct.standardConfig, ptr %51, i32 0, i32 4
  %numeric_type72 = getelementptr inbounds %struct.numericConfigData, ptr %data71, i32 0, i32 2
  %52 = load i32, ptr %numeric_type72, align 4
  %cmp73 = icmp eq i32 %52, 9
  br i1 %cmp73, label %if.then75, label %if.end78

if.then75:                                        ; preds = %if.else70
  %53 = load i64, ptr %val.addr, align 8
  %54 = load ptr, ptr %config.addr, align 8
  %data76 = getelementptr inbounds %struct.standardConfig, ptr %54, i32 0, i32 4
  %config77 = getelementptr inbounds %struct.numericConfigData, ptr %data76, i32 0, i32 0
  %55 = load ptr, ptr %config77, align 8
  store i64 %53, ptr %55, align 8
  br label %if.end78

if.end78:                                         ; preds = %if.then75, %if.else70
  br label %if.end79

if.end79:                                         ; preds = %if.end78, %if.then67
  br label %if.end80

if.end80:                                         ; preds = %if.end79, %if.then59
  br label %if.end81

if.end81:                                         ; preds = %if.end80, %if.then51
  br label %if.end82

if.end82:                                         ; preds = %if.end81, %if.then43
  br label %if.end83

if.end83:                                         ; preds = %if.end82, %if.end
  br label %if.end84

if.end84:                                         ; preds = %if.end83, %if.then24
  br label %if.end85

if.end85:                                         ; preds = %if.end84, %if.then16
  br label %if.end86

if.end86:                                         ; preds = %if.end85, %if.then7
  br label %if.end87

if.end87:                                         ; preds = %if.end86, %if.then
  store i32 1, ptr %retval, align 4
  br label %return

return:                                           ; preds = %if.end87, %if.then34
  %56 = load i32, ptr %retval, align 4
  ret i32 %56
}

; Function Attrs: nounwind uwtable
define internal void @numericConfigInit(ptr noundef %config) #0 {
entry:
  %config.addr = alloca ptr, align 8
  store ptr %config, ptr %config.addr, align 8
  %0 = load ptr, ptr %config.addr, align 8
  %1 = load ptr, ptr %config.addr, align 8
  %data = getelementptr inbounds %struct.standardConfig, ptr %1, i32 0, i32 4
  %default_value = getelementptr inbounds %struct.numericConfigData, ptr %data, i32 0, i32 5
  %2 = load i64, ptr %default_value, align 8
  %call = call i32 @setNumericType(ptr noundef %0, i64 noundef %2, ptr noundef null)
  ret void
}