; Function Attrs: nounwind uwtable
define internal void @numericConfigInit(ptr nocapture noundef readonly %config) #2 {
entry:
  %default_value = getelementptr inbounds i8, ptr %config, i64 96
  %0 = load i64, ptr %default_value, align 8
  %data.i = getelementptr inbounds i8, ptr %config, i64 64
  %numeric_type.i = getelementptr inbounds i8, ptr %config, i64 76
  %1 = load i32, ptr %numeric_type.i, align 4
  switch i32 %1, label %setNumericType.exit [
    i32 0, label %if.then.i
    i32 1, label %if.then7.i
    i32 2, label %if.then16.i
    i32 3, label %if.then24.i
    i32 4, label %if.then32.i
    i32 5, label %if.then43.i
    i32 6, label %if.then51.i
    i32 7, label %if.then59.i
    i32 8, label %if.then67.i
    i32 9, label %if.then75.i
  ]

if.then.i:                                        ; preds = %entry
  %conv.i = trunc i64 %0 to i32
  %2 = load ptr, ptr %data.i, align 8
  store i32 %conv.i, ptr %2, align 4
  br label %setNumericType.exit

if.then7.i:                                       ; preds = %entry
  %conv8.i = trunc i64 %0 to i32
  %3 = load ptr, ptr %data.i, align 8
  store i32 %conv8.i, ptr %3, align 4
  br label %setNumericType.exit

if.then16.i:                                      ; preds = %entry
  %4 = load ptr, ptr %data.i, align 8
  store i64 %0, ptr %4, align 8
  br label %setNumericType.exit

if.then24.i:                                      ; preds = %entry
  %5 = load ptr, ptr %data.i, align 8
  store i64 %0, ptr %5, align 8
  br label %setNumericType.exit

if.then32.i:                                      ; preds = %entry
  %flags.i = getelementptr inbounds i8, ptr %config, i64 16
  %6 = load i32, ptr %flags.i, align 8
  %7 = and i32 %6, 256
  %tobool.not.i = icmp eq i32 %7, 0
  br i1 %tobool.not.i, label %if.else35.i, label %if.then34.i

if.then34.i:                                      ; preds = %if.then32.i
  %privdata.i = getelementptr inbounds i8, ptr %config, i64 120
  %8 = load ptr, ptr %privdata.i, align 8
  %call.i = tail call i32 @setModuleNumericConfig(ptr noundef %8, i64 noundef %0, ptr noundef null) #24
  br label %setNumericType.exit

if.else35.i:                                      ; preds = %if.then32.i
  %9 = load ptr, ptr %data.i, align 8
  store i64 %0, ptr %9, align 8
  br label %setNumericType.exit

if.then43.i:                                      ; preds = %entry
  %10 = load ptr, ptr %data.i, align 8
  store i64 %0, ptr %10, align 8
  br label %setNumericType.exit

if.then51.i:                                      ; preds = %entry
  %11 = load ptr, ptr %data.i, align 8
  store i64 %0, ptr %11, align 8
  br label %setNumericType.exit

if.then59.i:                                      ; preds = %entry
  %12 = load ptr, ptr %data.i, align 8
  store i64 %0, ptr %12, align 8
  br label %setNumericType.exit

if.then67.i:                                      ; preds = %entry
  %13 = load ptr, ptr %data.i, align 8
  store i64 %0, ptr %13, align 8
  br label %setNumericType.exit

if.then75.i:                                      ; preds = %entry
  %14 = load ptr, ptr %data.i, align 8
  store i64 %0, ptr %14, align 8
  br label %setNumericType.exit

setNumericType.exit:                              ; preds = %entry, %if.then.i, %if.then7.i, %if.then16.i, %if.then24.i, %if.then34.i, %if.else35.i, %if.then43.i, %if.then51.i, %if.then59.i, %if.then67.i, %if.then75.i
  ret void
}